target datalayout = "e-m:e-p270:32:32-p271:32:32-p272:64:64-i64:64-i128:128-f80:128-n8:16:32:64-S128"
target triple = "x86_64-pc-linux-gnu"

%class.RawRead = type { %class.Array, ptr, i64, i64, ptr }
%class.Array = type { ptr, i64, i64, i64 }

; Function Attrs: inlinehint mustprogress nounwind uwtable
define linkonce_odr noundef nonnull align 1 dereferenceable(1) ptr @_ZNK5ArrayIhEixEm(ptr noundef nonnull align 8 dereferenceable(32) %0, i64 noundef %1) #3 comdat align 2 {
  %3 = alloca ptr, align 8
  %4 = alloca i64, align 8
  store ptr %0, ptr %3, align 8, !tbaa !15
  store i64 %1, ptr %4, align 8, !tbaa !23
  %5 = load ptr, ptr %3, align 8
  %6 = getelementptr inbounds nuw %class.Array, ptr %5, i32 0, i32 0
  %7 = load ptr, ptr %6, align 8, !tbaa !20
  %8 = load i64, ptr %4, align 8, !tbaa !23
  %9 = getelementptr inbounds nuw i8, ptr %7, i64 %8
  ret ptr %9
}

; Function Attrs: mustprogress uwtable
define noundef i32 @_ZN7RawRead4Get4Ev(ptr noundef nonnull align 8 dereferenceable(64) %0) #0 align 2 {
  %2 = alloca i32, align 4
  %3 = alloca ptr, align 8
  %4 = alloca i32, align 4
  store ptr %0, ptr %3, align 8, !tbaa !3
  %5 = load ptr, ptr %3, align 8
  %6 = getelementptr inbounds nuw %class.RawRead, ptr %5, i32 0, i32 3
  %7 = load i64, ptr %6, align 8, !tbaa !17
  %8 = add i64 %7, 3
  %9 = getelementptr inbounds nuw %class.RawRead, ptr %5, i32 0, i32 2
  %10 = load i64, ptr %9, align 8, !tbaa !18
  %11 = icmp ult i64 %8, %10
  br i1 %11, label %12, label %50

12:                                               ; preds = %1
  call void @llvm.lifetime.start.p0(i64 4, ptr %4) #9
  %13 = getelementptr inbounds nuw %class.RawRead, ptr %5, i32 0, i32 0
  %14 = getelementptr inbounds nuw %class.RawRead, ptr %5, i32 0, i32 3
  %15 = load i64, ptr %14, align 8, !tbaa !17
  %16 = call noundef nonnull align 1 dereferenceable(1) ptr @_ZNK5ArrayIhEixEm(ptr noundef nonnull align 8 dereferenceable(32) %13, i64 noundef %15)
  %17 = load i8, ptr %16, align 1, !tbaa !29
  %18 = zext i8 %17 to i32
  %19 = getelementptr inbounds nuw %class.RawRead, ptr %5, i32 0, i32 0
  %20 = getelementptr inbounds nuw %class.RawRead, ptr %5, i32 0, i32 3
  %21 = load i64, ptr %20, align 8, !tbaa !17
  %22 = add i64 %21, 1
  %23 = call noundef nonnull align 1 dereferenceable(1) ptr @_ZNK5ArrayIhEixEm(ptr noundef nonnull align 8 dereferenceable(32) %19, i64 noundef %22)
  %24 = load i8, ptr %23, align 1, !tbaa !29
  %25 = zext i8 %24 to i32
  %26 = shl i32 %25, 8
  %27 = add nsw i32 %18, %26
  %28 = getelementptr inbounds nuw %class.RawRead, ptr %5, i32 0, i32 0
  %29 = getelementptr inbounds nuw %class.RawRead, ptr %5, i32 0, i32 3
  %30 = load i64, ptr %29, align 8, !tbaa !17
  %31 = add i64 %30, 2
  %32 = call noundef nonnull align 1 dereferenceable(1) ptr @_ZNK5ArrayIhEixEm(ptr noundef nonnull align 8 dereferenceable(32) %28, i64 noundef %31)
  %33 = load i8, ptr %32, align 1, !tbaa !29
  %34 = zext i8 %33 to i32
  %35 = shl i32 %34, 16
  %36 = add nsw i32 %27, %35
  %37 = getelementptr inbounds nuw %class.RawRead, ptr %5, i32 0, i32 0
  %38 = getelementptr inbounds nuw %class.RawRead, ptr %5, i32 0, i32 3
  %39 = load i64, ptr %38, align 8, !tbaa !17
  %40 = add i64 %39, 3
  %41 = call noundef nonnull align 1 dereferenceable(1) ptr @_ZNK5ArrayIhEixEm(ptr noundef nonnull align 8 dereferenceable(32) %37, i64 noundef %40)
  %42 = load i8, ptr %41, align 1, !tbaa !29
  %43 = zext i8 %42 to i32
  %44 = shl i32 %43, 24
  %45 = add nsw i32 %36, %44
  store i32 %45, ptr %4, align 4, !tbaa !32
  %46 = getelementptr inbounds nuw %class.RawRead, ptr %5, i32 0, i32 3
  %47 = load i64, ptr %46, align 8, !tbaa !17
  %48 = add i64 %47, 4
  store i64 %48, ptr %46, align 8, !tbaa !17
  %49 = load i32, ptr %4, align 4, !tbaa !32
  store i32 %49, ptr %2, align 4
  call void @llvm.lifetime.end.p0(i64 4, ptr %4) #9
  br label %51

50:                                               ; preds = %1
  store i32 0, ptr %2, align 4
  br label %51

51:                                               ; preds = %50, %12
  %52 = load i32, ptr %2, align 4
  ret i32 %52
}