; Function Attrs: mustprogress nofree norecurse nosync nounwind willreturn memory(read, argmem: readwrite, inaccessiblemem: none) uwtable
define noundef i32 @_ZN7RawRead4Get4Ev(ptr noundef nonnull align 8 captures(none) dereferenceable(64) %0) local_unnamed_addr #4 align 2 {
  %2 = getelementptr inbounds nuw i8, ptr %0, i64 48
  %3 = load i64, ptr %2, align 8, !tbaa !21
  %4 = add i64 %3, 3
  %5 = getelementptr inbounds nuw i8, ptr %0, i64 40
  %6 = load i64, ptr %5, align 8, !tbaa !15
  %7 = icmp ult i64 %4, %6
  br i1 %7, label %8, label %29

8:                                                ; preds = %1
  %9 = load ptr, ptr %0, align 8, !tbaa !17
  %10 = getelementptr i8, ptr %9, i64 %3
  %11 = load i8, ptr %10, align 1, !tbaa !22
  %12 = zext i8 %11 to i32
  %13 = getelementptr i8, ptr %10, i64 1
  %14 = load i8, ptr %13, align 1, !tbaa !22
  %15 = zext i8 %14 to i32
  %16 = shl nuw nsw i32 %15, 8
  %17 = or disjoint i32 %16, %12
  %18 = getelementptr i8, ptr %10, i64 2
  %19 = load i8, ptr %18, align 1, !tbaa !22
  %20 = zext i8 %19 to i32
  %21 = shl nuw nsw i32 %20, 16
  %22 = or disjoint i32 %17, %21
  %23 = getelementptr inbounds nuw i8, ptr %9, i64 %4
  %24 = load i8, ptr %23, align 1, !tbaa !22
  %25 = zext i8 %24 to i32
  %26 = shl nuw i32 %25, 24
  %27 = or disjoint i32 %22, %26
  %28 = add i64 %3, 4
  store i64 %28, ptr %2, align 8, !tbaa !21
  br label %29

29:                                               ; preds = %1, %8
  %.0 = phi i32 [ %27, %8 ], [ 0, %1 ]
  ret i32 %.0
}